target datalayout = "e-m:e-p270:32:32-p271:32:32-p272:64:64-i64:64-i128:128-f80:128-n8:16:32:64-S128"
target triple = "x86_64-pc-linux-gnu"

%class.ErrorHandler = type <{ i32, i32, i8, i8, i8, i8, i8, i8, [2 x i8] }>
%class.SubAllocator = type { i64, [38 x i8], [128 x i8], i8, ptr, ptr, ptr, [38 x %"struct.SubAllocator::RAR_NODE"], ptr, ptr, ptr, ptr }
%"struct.SubAllocator::RAR_NODE" = type { ptr }

@ErrHandler = external global %class.ErrorHandler, align 4

; Function Attrs: mustprogress nounwind uwtable
define void @_ZN12SubAllocator16StopSubAllocatorEv(ptr noundef nonnull align 8 dereferenceable(536) %0) #1 align 2 {
  %2 = alloca ptr, align 8
  store ptr %0, ptr %2, align 8
  %3 = load ptr, ptr %2, align 8
  %4 = getelementptr inbounds %class.SubAllocator, ptr %3, i32 0, i32 0
  %5 = load i64, ptr %4, align 8
  %6 = icmp ne i64 %5, 0
  br i1 %6, label %7, label %11

7:                                                ; preds = %1
  %8 = getelementptr inbounds %class.SubAllocator, ptr %3, i32 0, i32 0
  store i64 0, ptr %8, align 8
  %9 = getelementptr inbounds %class.SubAllocator, ptr %3, i32 0, i32 4
  %10 = load ptr, ptr %9, align 8
  call void @free(ptr noundef %10) #12
  br label %11

11:                                               ; preds = %7, %1
  ret void
}

; Function Attrs: mustprogress uwtable
define noundef zeroext i1 @_ZN12SubAllocator17StartSubAllocatorEi(ptr noundef nonnull align 8 dereferenceable(536) %0, i32 noundef %1) #0 align 2 {
  %3 = alloca i1, align 1
  %4 = alloca ptr, align 8
  %5 = alloca i32, align 4
  %6 = alloca i32, align 4
  %7 = alloca i32, align 4
  store ptr %0, ptr %4, align 8
  store i32 %1, ptr %5, align 4
  %8 = load ptr, ptr %4, align 8
  %9 = load i32, ptr %5, align 4
  %10 = shl i32 %9, 20
  store i32 %10, ptr %6, align 4
  %11 = getelementptr inbounds %class.SubAllocator, ptr %8, i32 0, i32 0
  %12 = load i64, ptr %11, align 8
  %13 = load i32, ptr %6, align 4
  %14 = zext i32 %13 to i64
  %15 = icmp eq i64 %12, %14
  br i1 %15, label %16, label %17

16:                                               ; preds = %2
  store i1 true, ptr %3, align 1
  br label %39

17:                                               ; preds = %2
  call void @_ZN12SubAllocator16StopSubAllocatorEv(ptr noundef nonnull align 8 dereferenceable(536) %8)
  %18 = load i32, ptr %6, align 4
  %19 = udiv i32 %18, 12
  %20 = mul i32 %19, 20
  %21 = add i32 %20, 40
  store i32 %21, ptr %7, align 4
  %22 = load i32, ptr %7, align 4
  %23 = zext i32 %22 to i64
  %24 = call noalias ptr @malloc(i64 noundef %23) #13
  %25 = getelementptr inbounds %class.SubAllocator, ptr %8, i32 0, i32 4
  store ptr %24, ptr %25, align 8
  %26 = icmp eq ptr %24, null
  br i1 %26, label %27, label %28

27:                                               ; preds = %17
  call void @_ZN12ErrorHandler11MemoryErrorEv(ptr noundef nonnull align 4 dereferenceable(14) @ErrHandler)
  store i1 false, ptr %3, align 1
  br label %39

28:                                               ; preds = %17
  %29 = getelementptr inbounds %class.SubAllocator, ptr %8, i32 0, i32 4
  %30 = load ptr, ptr %29, align 8
  %31 = load i32, ptr %7, align 4
  %32 = zext i32 %31 to i64
  %33 = getelementptr inbounds i8, ptr %30, i64 %32
  %34 = getelementptr inbounds i8, ptr %33, i64 -20
  %35 = getelementptr inbounds %class.SubAllocator, ptr %8, i32 0, i32 10
  store ptr %34, ptr %35, align 8
  %36 = load i32, ptr %6, align 4
  %37 = zext i32 %36 to i64
  %38 = getelementptr inbounds %class.SubAllocator, ptr %8, i32 0, i32 0
  store i64 %37, ptr %38, align 8
  store i1 true, ptr %3, align 1
  br label %39

39:                                               ; preds = %28, %27, %16
  %40 = load i1, ptr %3, align 1
  ret i1 %40
}