; Function Attrs: mustprogress uwtable
define noundef zeroext i1 @_ZN12SubAllocator17StartSubAllocatorEi(ptr nocapture noundef nonnull align 8 dereferenceable(536) %0, i32 noundef %1) local_unnamed_addr #0 align 2 {
  %3 = shl i32 %1, 20
  %4 = load i64, ptr %0, align 8
  %5 = zext i32 %3 to i64
  %6 = icmp eq i64 %4, %5
  br i1 %6, label %23, label %7

7:                                                ; preds = %2
  %.not.i = icmp eq i64 %4, 0
  br i1 %.not.i, label %_ZN12SubAllocator16StopSubAllocatorEv.exit, label %8

8:                                                ; preds = %7
  store i64 0, ptr %0, align 8
  %9 = getelementptr inbounds i8, ptr %0, i64 176
  %10 = load ptr, ptr %9, align 8
  tail call void @free(ptr noundef %10) #21
  br label %_ZN12SubAllocator16StopSubAllocatorEv.exit

_ZN12SubAllocator16StopSubAllocatorEv.exit:       ; preds = %7, %8
  %11 = udiv i32 %3, 12
  %12 = mul i32 %11, 20
  %13 = add i32 %12, 40
  %14 = zext i32 %13 to i64
  %15 = tail call noalias ptr @malloc(i64 noundef %14) #22
  %16 = getelementptr inbounds i8, ptr %0, i64 176
  store ptr %15, ptr %16, align 8
  %17 = icmp eq ptr %15, null
  br i1 %17, label %18, label %19

18:                                               ; preds = %_ZN12SubAllocator16StopSubAllocatorEv.exit
  tail call void @_ZN12ErrorHandler11MemoryErrorEv(ptr noundef nonnull align 4 dereferenceable(14) @ErrHandler)
  br label %23

19:                                               ; preds = %_ZN12SubAllocator16StopSubAllocatorEv.exit
  %20 = getelementptr inbounds i8, ptr %15, i64 %14
  %21 = getelementptr inbounds i8, ptr %20, i64 -20
  %22 = getelementptr inbounds i8, ptr %0, i64 520
  store ptr %21, ptr %22, align 8
  store i64 %5, ptr %0, align 8
  br label %23

23:                                               ; preds = %2, %19, %18
  %.0 = phi i1 [ false, %18 ], [ true, %19 ], [ true, %2 ]
  ret i1 %.0
}